target datalayout = "e-m:e-p270:32:32-p271:32:32-p272:64:64-i64:64-i128:128-f80:128-n8:16:32:64-S128"
target triple = "x86_64-pc-linux-gnu"

%struct.CVodeMemRec = type { double, ptr, ptr, i32, i32, i32, double, double, ptr, i32, ptr, ptr, i32, ptr, i32, i32, double, double, ptr, i32, i32, i32, ptr, ptr, ptr, i32, i32, ptr, ptr, ptr, i32, double, i32, i32, double, ptr, ptr, i32, ptr, ptr, i32, i32, i32, double, ptr, ptr, [13 x ptr], ptr, ptr, ptr, ptr, ptr, [13 x ptr], ptr, ptr, ptr, ptr, [13 x ptr], ptr, ptr, ptr, ptr, ptr, i32, [13 x ptr], ptr, ptr, ptr, ptr, ptr, i32, double, i32, i32, i32, i32, i32, double, double, double, double, double, double, double, double, [14 x double], [6 x double], [13 x double], double, double, double, double, double, double, double, double, double, double, double, i32, ptr, i32, i64, i32, i32, i32, i32, i32, double, double, double, i64, i64, i64, i64, i64, i64, i64, i64, i64, ptr, i64, i64, ptr, i64, i64, i64, i64, i64, i64, i32, i64, i64, i64, i64, i64, i64, double, double, double, ptr, ptr, ptr, ptr, ptr, i32, i32, i64, double, double, double, i32, double, i32, i32, i32, i32, i32, i32, i32, i32, i32, i32, i32, i32, i32, i32, i32, i32, ptr, ptr, ptr, i32, [6 x [4 x double]], i32, i64, ptr, i32, ptr, ptr, double, double, double, ptr, ptr, ptr, double, double, i32, i32, i64, ptr, i32, i32, ptr, i32 }

@.str = private unnamed_addr constant [7 x i8] c"CVODES\00", align 1
@.str.2 = private unnamed_addr constant [26 x i8] c"cvode_mem = NULL illegal.\00", align 1
@.str.36 = private unnamed_addr constant [44 x i8] c"Forward sensitivity analysis not activated.\00", align 1
@.str.82 = private unnamed_addr constant [28 x i8] c"CVodeGetSensNonlinSolvstats\00", align 1
@.str.83 = private unnamed_addr constant [28 x i8] c"CVodeGetSensNonlinSolvStats\00", align 1

; Function Attrs: nounwind uwtable
define i32 @CVodeGetSensNonlinSolvStats(ptr noundef %0, ptr noundef %1, ptr noundef %2) #0 {
  %4 = alloca i32, align 4
  %5 = alloca ptr, align 8
  %6 = alloca ptr, align 8
  %7 = alloca ptr, align 8
  %8 = alloca ptr, align 8
  %9 = alloca i32, align 4
  store ptr %0, ptr %5, align 8, !tbaa !3
  store ptr %1, ptr %6, align 8, !tbaa !72
  store ptr %2, ptr %7, align 8, !tbaa !72
  call void @llvm.lifetime.start.p0(i64 8, ptr %8) #5
  %10 = load ptr, ptr %5, align 8, !tbaa !3
  %11 = icmp eq ptr %10, null
  br i1 %11, label %12, label %13

12:                                               ; preds = %3
  call void (ptr, i32, ptr, ptr, ptr, ...) @cvProcessError(ptr noundef null, i32 noundef -21, ptr noundef @.str, ptr noundef @.str.82, ptr noundef @.str.2)
  store i32 -21, ptr %4, align 4
  store i32 1, ptr %9, align 4
  br label %30

13:                                               ; preds = %3
  %14 = load ptr, ptr %5, align 8, !tbaa !3
  store ptr %14, ptr %8, align 8, !tbaa !7
  %15 = load ptr, ptr %8, align 8, !tbaa !7
  %16 = getelementptr inbounds nuw %struct.CVodeMemRec, ptr %15, i32 0, i32 19
  %17 = load i32, ptr %16, align 8, !tbaa !103
  %18 = icmp eq i32 %17, 0
  br i1 %18, label %19, label %21

19:                                               ; preds = %13
  %20 = load ptr, ptr %8, align 8, !tbaa !7
  call void (ptr, i32, ptr, ptr, ptr, ...) @cvProcessError(ptr noundef %20, i32 noundef -40, ptr noundef @.str, ptr noundef @.str.83, ptr noundef @.str.36)
  store i32 -40, ptr %4, align 4
  store i32 1, ptr %9, align 4
  br label %30

21:                                               ; preds = %13
  %22 = load ptr, ptr %8, align 8, !tbaa !7
  %23 = getelementptr inbounds nuw %struct.CVodeMemRec, ptr %22, i32 0, i32 122
  %24 = load i64, ptr %23, align 8, !tbaa !110
  %25 = load ptr, ptr %6, align 8, !tbaa !72
  store i64 %24, ptr %25, align 8, !tbaa !31
  %26 = load ptr, ptr %8, align 8, !tbaa !7
  %27 = getelementptr inbounds nuw %struct.CVodeMemRec, ptr %26, i32 0, i32 119
  %28 = load i64, ptr %27, align 8, !tbaa !111
  %29 = load ptr, ptr %7, align 8, !tbaa !72
  store i64 %28, ptr %29, align 8, !tbaa !31
  store i32 0, ptr %4, align 4
  store i32 1, ptr %9, align 4
  br label %30

30:                                               ; preds = %21, %19, %12
  call void @llvm.lifetime.end.p0(i64 8, ptr %8) #5
  %31 = load i32, ptr %4, align 4
  ret i32 %31
}